target datalayout = "e-m:e-p270:32:32-p271:32:32-p272:64:64-i64:64-i128:128-f80:128-n8:16:32:64-S128"
target triple = "x86_64-pc-linux-gnu"

%class.aiVector3t = type { float, float, float }
%struct.aiMesh = type { i32, i32, i32, ptr, ptr, ptr, ptr, [8 x ptr], [8 x ptr], [8 x i32], ptr, i32, ptr, i32, %struct.aiString, i32, ptr, i32, %struct.aiAABB, ptr }
%struct.aiString = type { i32, [1024 x i8] }
%struct.aiAABB = type { %class.aiVector3t, %class.aiVector3t }
%class.aiMatrix4x4t = type { float, float, float, float, float, float, float, float, float, float, float, float, float, float, float, float }

; Function Attrs: inlinehint mustprogress nounwind uwtable
define linkonce_odr noundef nonnull align 4 dereferenceable(4) ptr @_ZSt3maxIfERKT_S2_S2_(ptr noundef nonnull align 4 dereferenceable(4) %0, ptr noundef nonnull align 4 dereferenceable(4) %1) #7 comdat {
  %3 = alloca ptr, align 8
  %4 = alloca ptr, align 8
  %5 = alloca ptr, align 8
  store ptr %0, ptr %4, align 8
  store ptr %1, ptr %5, align 8
  %6 = load ptr, ptr %4, align 8
  %7 = load float, ptr %6, align 4
  %8 = load ptr, ptr %5, align 8
  %9 = load float, ptr %8, align 4
  %10 = fcmp olt float %7, %9
  br i1 %10, label %11, label %13

11:                                               ; preds = %2
  %12 = load ptr, ptr %5, align 8
  store ptr %12, ptr %3, align 8
  br label %15

13:                                               ; preds = %2
  %14 = load ptr, ptr %4, align 8
  store ptr %14, ptr %3, align 8
  br label %15

15:                                               ; preds = %13, %11
  %16 = load ptr, ptr %3, align 8
  ret ptr %16
}

; Function Attrs: inlinehint mustprogress nounwind uwtable
define linkonce_odr noundef nonnull align 4 dereferenceable(4) ptr @_ZSt3minIfERKT_S2_S2_(ptr noundef nonnull align 4 dereferenceable(4) %0, ptr noundef nonnull align 4 dereferenceable(4) %1) #7 comdat {
  %3 = alloca ptr, align 8
  %4 = alloca ptr, align 8
  %5 = alloca ptr, align 8
  store ptr %0, ptr %4, align 8
  store ptr %1, ptr %5, align 8
  %6 = load ptr, ptr %5, align 8
  %7 = load float, ptr %6, align 4
  %8 = load ptr, ptr %4, align 8
  %9 = load float, ptr %8, align 4
  %10 = fcmp olt float %7, %9
  br i1 %10, label %11, label %13

11:                                               ; preds = %2
  %12 = load ptr, ptr %5, align 8
  store ptr %12, ptr %3, align 8
  br label %15

13:                                               ; preds = %2
  %14 = load ptr, ptr %4, align 8
  store ptr %14, ptr %3, align 8
  br label %15

15:                                               ; preds = %13, %11
  %16 = load ptr, ptr %3, align 8
  ret ptr %16
}

; Function Attrs: mustprogress nounwind uwtable
define linkonce_odr hidden void @_ZN10aiVector3tIfEC2Ev(ptr noundef nonnull align 4 dereferenceable(12) %0) unnamed_addr #2 comdat align 2 {
  %2 = alloca ptr, align 8
  store ptr %0, ptr %2, align 8
  %3 = load ptr, ptr %2, align 8
  %4 = getelementptr inbounds nuw %class.aiVector3t, ptr %3, i32 0, i32 0
  store float 0.000000e+00, ptr %4, align 4
  %5 = getelementptr inbounds nuw %class.aiVector3t, ptr %3, i32 0, i32 1
  store float 0.000000e+00, ptr %5, align 4
  %6 = getelementptr inbounds nuw %class.aiVector3t, ptr %3, i32 0, i32 2
  store float 0.000000e+00, ptr %6, align 4
  ret void
}

; Function Attrs: inlinehint mustprogress uwtable
define linkonce_odr hidden { <2 x float>, float } @_ZSt3maxIfE10aiVector3tIT_ERKS2_S4_(ptr noundef nonnull align 4 dereferenceable(12) %0, ptr noundef nonnull align 4 dereferenceable(12) %1) #3 comdat {
  %3 = alloca %class.aiVector3t, align 4
  %4 = alloca ptr, align 8
  %5 = alloca ptr, align 8
  %6 = alloca { <2 x float>, float }, align 8
  store ptr %0, ptr %4, align 8
  store ptr %1, ptr %5, align 8
  %7 = load ptr, ptr %4, align 8
  %8 = getelementptr inbounds nuw %class.aiVector3t, ptr %7, i32 0, i32 0
  %9 = load ptr, ptr %5, align 8
  %10 = getelementptr inbounds nuw %class.aiVector3t, ptr %9, i32 0, i32 0
  %11 = call noundef nonnull align 4 dereferenceable(4) ptr @_ZSt3maxIfERKT_S2_S2_(ptr noundef nonnull align 4 dereferenceable(4) %8, ptr noundef nonnull align 4 dereferenceable(4) %10)
  %12 = load float, ptr %11, align 4
  %13 = load ptr, ptr %4, align 8
  %14 = getelementptr inbounds nuw %class.aiVector3t, ptr %13, i32 0, i32 1
  %15 = load ptr, ptr %5, align 8
  %16 = getelementptr inbounds nuw %class.aiVector3t, ptr %15, i32 0, i32 1
  %17 = call noundef nonnull align 4 dereferenceable(4) ptr @_ZSt3maxIfERKT_S2_S2_(ptr noundef nonnull align 4 dereferenceable(4) %14, ptr noundef nonnull align 4 dereferenceable(4) %16)
  %18 = load float, ptr %17, align 4
  %19 = load ptr, ptr %4, align 8
  %20 = getelementptr inbounds nuw %class.aiVector3t, ptr %19, i32 0, i32 2
  %21 = load ptr, ptr %5, align 8
  %22 = getelementptr inbounds nuw %class.aiVector3t, ptr %21, i32 0, i32 2
  %23 = call noundef nonnull align 4 dereferenceable(4) ptr @_ZSt3maxIfERKT_S2_S2_(ptr noundef nonnull align 4 dereferenceable(4) %20, ptr noundef nonnull align 4 dereferenceable(4) %22)
  %24 = load float, ptr %23, align 4
  call void @_ZN10aiVector3tIfEC2Efff(ptr noundef nonnull align 4 dereferenceable(12) %3, float noundef %12, float noundef %18, float noundef %24)
  call void @llvm.memcpy.p0.p0.i64(ptr align 8 %6, ptr align 4 %3, i64 12, i1 false)
  %25 = load { <2 x float>, float }, ptr %6, align 8
  ret { <2 x float>, float } %25
}

; Function Attrs: inlinehint mustprogress uwtable
define linkonce_odr hidden { <2 x float>, float } @_ZSt3minIfE10aiVector3tIT_ERKS2_S4_(ptr noundef nonnull align 4 dereferenceable(12) %0, ptr noundef nonnull align 4 dereferenceable(12) %1) #3 comdat {
  %3 = alloca %class.aiVector3t, align 4
  %4 = alloca ptr, align 8
  %5 = alloca ptr, align 8
  %6 = alloca { <2 x float>, float }, align 8
  store ptr %0, ptr %4, align 8
  store ptr %1, ptr %5, align 8
  %7 = load ptr, ptr %4, align 8
  %8 = getelementptr inbounds nuw %class.aiVector3t, ptr %7, i32 0, i32 0
  %9 = load ptr, ptr %5, align 8
  %10 = getelementptr inbounds nuw %class.aiVector3t, ptr %9, i32 0, i32 0
  %11 = call noundef nonnull align 4 dereferenceable(4) ptr @_ZSt3minIfERKT_S2_S2_(ptr noundef nonnull align 4 dereferenceable(4) %8, ptr noundef nonnull align 4 dereferenceable(4) %10)
  %12 = load float, ptr %11, align 4
  %13 = load ptr, ptr %4, align 8
  %14 = getelementptr inbounds nuw %class.aiVector3t, ptr %13, i32 0, i32 1
  %15 = load ptr, ptr %5, align 8
  %16 = getelementptr inbounds nuw %class.aiVector3t, ptr %15, i32 0, i32 1
  %17 = call noundef nonnull align 4 dereferenceable(4) ptr @_ZSt3minIfERKT_S2_S2_(ptr noundef nonnull align 4 dereferenceable(4) %14, ptr noundef nonnull align 4 dereferenceable(4) %16)
  %18 = load float, ptr %17, align 4
  %19 = load ptr, ptr %4, align 8
  %20 = getelementptr inbounds nuw %class.aiVector3t, ptr %19, i32 0, i32 2
  %21 = load ptr, ptr %5, align 8
  %22 = getelementptr inbounds nuw %class.aiVector3t, ptr %21, i32 0, i32 2
  %23 = call noundef nonnull align 4 dereferenceable(4) ptr @_ZSt3minIfERKT_S2_S2_(ptr noundef nonnull align 4 dereferenceable(4) %20, ptr noundef nonnull align 4 dereferenceable(4) %22)
  %24 = load float, ptr %23, align 4
  call void @_ZN10aiVector3tIfEC2Efff(ptr noundef nonnull align 4 dereferenceable(12) %3, float noundef %12, float noundef %18, float noundef %24)
  call void @llvm.memcpy.p0.p0.i64(ptr align 8 %6, ptr align 4 %3, i64 12, i1 false)
  %25 = load { <2 x float>, float }, ptr %6, align 8
  ret { <2 x float>, float } %25
}

; Function Attrs: inlinehint mustprogress nounwind uwtable
define linkonce_odr hidden { <2 x float>, float } @_ZmlIfE10aiVector3tIT_ERK12aiMatrix4x4tIS1_ERKS2_(ptr noundef nonnull align 4 dereferenceable(64) %0, ptr noundef nonnull align 4 dereferenceable(12) %1) #7 comdat {
  %3 = alloca %class.aiVector3t, align 4
  %4 = alloca ptr, align 8
  %5 = alloca ptr, align 8
  %6 = alloca { <2 x float>, float }, align 8
  store ptr %0, ptr %4, align 8
  store ptr %1, ptr %5, align 8
  call void @_ZN10aiVector3tIfEC2Ev(ptr noundef nonnull align 4 dereferenceable(12) %3) #18
  %7 = load ptr, ptr %4, align 8
  %8 = getelementptr inbounds nuw %class.aiMatrix4x4t, ptr %7, i32 0, i32 0
  %9 = load float, ptr %8, align 4
  %10 = load ptr, ptr %5, align 8
  %11 = getelementptr inbounds nuw %class.aiVector3t, ptr %10, i32 0, i32 0
  %12 = load float, ptr %11, align 4
  %13 = load ptr, ptr %4, align 8
  %14 = getelementptr inbounds nuw %class.aiMatrix4x4t, ptr %13, i32 0, i32 1
  %15 = load float, ptr %14, align 4
  %16 = load ptr, ptr %5, align 8
  %17 = getelementptr inbounds nuw %class.aiVector3t, ptr %16, i32 0, i32 1
  %18 = load float, ptr %17, align 4
  %19 = fmul float %15, %18
  %20 = call float @llvm.fmuladd.f32(float %9, float %12, float %19)
  %21 = load ptr, ptr %4, align 8
  %22 = getelementptr inbounds nuw %class.aiMatrix4x4t, ptr %21, i32 0, i32 2
  %23 = load float, ptr %22, align 4
  %24 = load ptr, ptr %5, align 8
  %25 = getelementptr inbounds nuw %class.aiVector3t, ptr %24, i32 0, i32 2
  %26 = load float, ptr %25, align 4
  %27 = call float @llvm.fmuladd.f32(float %23, float %26, float %20)
  %28 = load ptr, ptr %4, align 8
  %29 = getelementptr inbounds nuw %class.aiMatrix4x4t, ptr %28, i32 0, i32 3
  %30 = load float, ptr %29, align 4
  %31 = fadd float %27, %30
  %32 = getelementptr inbounds nuw %class.aiVector3t, ptr %3, i32 0, i32 0
  store float %31, ptr %32, align 4
  %33 = load ptr, ptr %4, align 8
  %34 = getelementptr inbounds nuw %class.aiMatrix4x4t, ptr %33, i32 0, i32 4
  %35 = load float, ptr %34, align 4
  %36 = load ptr, ptr %5, align 8
  %37 = getelementptr inbounds nuw %class.aiVector3t, ptr %36, i32 0, i32 0
  %38 = load float, ptr %37, align 4
  %39 = load ptr, ptr %4, align 8
  %40 = getelementptr inbounds nuw %class.aiMatrix4x4t, ptr %39, i32 0, i32 5
  %41 = load float, ptr %40, align 4
  %42 = load ptr, ptr %5, align 8
  %43 = getelementptr inbounds nuw %class.aiVector3t, ptr %42, i32 0, i32 1
  %44 = load float, ptr %43, align 4
  %45 = fmul float %41, %44
  %46 = call float @llvm.fmuladd.f32(float %35, float %38, float %45)
  %47 = load ptr, ptr %4, align 8
  %48 = getelementptr inbounds nuw %class.aiMatrix4x4t, ptr %47, i32 0, i32 6
  %49 = load float, ptr %48, align 4
  %50 = load ptr, ptr %5, align 8
  %51 = getelementptr inbounds nuw %class.aiVector3t, ptr %50, i32 0, i32 2
  %52 = load float, ptr %51, align 4
  %53 = call float @llvm.fmuladd.f32(float %49, float %52, float %46)
  %54 = load ptr, ptr %4, align 8
  %55 = getelementptr inbounds nuw %class.aiMatrix4x4t, ptr %54, i32 0, i32 7
  %56 = load float, ptr %55, align 4
  %57 = fadd float %53, %56
  %58 = getelementptr inbounds nuw %class.aiVector3t, ptr %3, i32 0, i32 1
  store float %57, ptr %58, align 4
  %59 = load ptr, ptr %4, align 8
  %60 = getelementptr inbounds nuw %class.aiMatrix4x4t, ptr %59, i32 0, i32 8
  %61 = load float, ptr %60, align 4
  %62 = load ptr, ptr %5, align 8
  %63 = getelementptr inbounds nuw %class.aiVector3t, ptr %62, i32 0, i32 0
  %64 = load float, ptr %63, align 4
  %65 = load ptr, ptr %4, align 8
  %66 = getelementptr inbounds nuw %class.aiMatrix4x4t, ptr %65, i32 0, i32 9
  %67 = load float, ptr %66, align 4
  %68 = load ptr, ptr %5, align 8
  %69 = getelementptr inbounds nuw %class.aiVector3t, ptr %68, i32 0, i32 1
  %70 = load float, ptr %69, align 4
  %71 = fmul float %67, %70
  %72 = call float @llvm.fmuladd.f32(float %61, float %64, float %71)
  %73 = load ptr, ptr %4, align 8
  %74 = getelementptr inbounds nuw %class.aiMatrix4x4t, ptr %73, i32 0, i32 10
  %75 = load float, ptr %74, align 4
  %76 = load ptr, ptr %5, align 8
  %77 = getelementptr inbounds nuw %class.aiVector3t, ptr %76, i32 0, i32 2
  %78 = load float, ptr %77, align 4
  %79 = call float @llvm.fmuladd.f32(float %75, float %78, float %72)
  %80 = load ptr, ptr %4, align 8
  %81 = getelementptr inbounds nuw %class.aiMatrix4x4t, ptr %80, i32 0, i32 11
  %82 = load float, ptr %81, align 4
  %83 = fadd float %79, %82
  %84 = getelementptr inbounds nuw %class.aiVector3t, ptr %3, i32 0, i32 2
  store float %83, ptr %84, align 4
  call void @llvm.memcpy.p0.p0.i64(ptr align 8 %6, ptr align 4 %3, i64 12, i1 false)
  %85 = load { <2 x float>, float }, ptr %6, align 8
  ret { <2 x float>, float } %85
}

; Function Attrs: mustprogress nounwind uwtable
define linkonce_odr hidden void @_ZN10aiVector3tIfEC2Efff(ptr noundef nonnull align 4 dereferenceable(12) %0, float noundef %1, float noundef %2, float noundef %3) unnamed_addr #2 comdat align 2 {
  %5 = alloca ptr, align 8
  %6 = alloca float, align 4
  %7 = alloca float, align 4
  %8 = alloca float, align 4
  store ptr %0, ptr %5, align 8
  store float %1, ptr %6, align 4
  store float %2, ptr %7, align 4
  store float %3, ptr %8, align 4
  %9 = load ptr, ptr %5, align 8
  %10 = getelementptr inbounds nuw %class.aiVector3t, ptr %9, i32 0, i32 0
  %11 = load float, ptr %6, align 4
  store float %11, ptr %10, align 4
  %12 = getelementptr inbounds nuw %class.aiVector3t, ptr %9, i32 0, i32 1
  %13 = load float, ptr %7, align 4
  store float %13, ptr %12, align 4
  %14 = getelementptr inbounds nuw %class.aiVector3t, ptr %9, i32 0, i32 2
  %15 = load float, ptr %8, align 4
  store float %15, ptr %14, align 4
  ret void
}

; Function Attrs: mustprogress uwtable
define hidden void @_ZN6Assimp19FindAABBTransformedEPK6aiMeshR10aiVector3tIfES5_RK12aiMatrix4x4tIfE(ptr noundef %0, ptr noundef nonnull align 4 dereferenceable(12) %1, ptr noundef nonnull align 4 dereferenceable(12) %2, ptr noundef nonnull align 4 dereferenceable(64) %3) #5 {
  %5 = alloca ptr, align 8
  %6 = alloca ptr, align 8
  %7 = alloca ptr, align 8
  %8 = alloca ptr, align 8
  %9 = alloca %class.aiVector3t, align 4
  %10 = alloca %class.aiVector3t, align 4
  %11 = alloca i32, align 4
  %12 = alloca %class.aiVector3t, align 4
  %13 = alloca { <2 x float>, float }, align 8
  %14 = alloca %class.aiVector3t, align 4
  %15 = alloca { <2 x float>, float }, align 8
  %16 = alloca %class.aiVector3t, align 4
  %17 = alloca { <2 x float>, float }, align 8
  store ptr %0, ptr %5, align 8
  store ptr %1, ptr %6, align 8
  store ptr %2, ptr %7, align 8
  store ptr %3, ptr %8, align 8
  call void @llvm.lifetime.start.p0(i64 12, ptr %9) #18
  call void @_ZN10aiVector3tIfEC2Efff(ptr noundef nonnull align 4 dereferenceable(12) %9, float noundef 0x42374876E0000000, float noundef 0x42374876E0000000, float noundef 0x42374876E0000000)
  %18 = load ptr, ptr %6, align 8
  call void @llvm.memcpy.p0.p0.i64(ptr align 4 %18, ptr align 4 %9, i64 12, i1 false)
  call void @llvm.lifetime.end.p0(i64 12, ptr %9) #18
  call void @llvm.lifetime.start.p0(i64 12, ptr %10) #18
  call void @_ZN10aiVector3tIfEC2Efff(ptr noundef nonnull align 4 dereferenceable(12) %10, float noundef 0xC2374876E0000000, float noundef 0xC2374876E0000000, float noundef 0xC2374876E0000000)
  %19 = load ptr, ptr %7, align 8
  call void @llvm.memcpy.p0.p0.i64(ptr align 4 %19, ptr align 4 %10, i64 12, i1 false)
  call void @llvm.lifetime.end.p0(i64 12, ptr %10) #18
  call void @llvm.lifetime.start.p0(i64 4, ptr %11) #18
  store i32 0, ptr %11, align 4
  br label %20

20:                                               ; preds = %42, %4
  %21 = load i32, ptr %11, align 4
  %22 = load ptr, ptr %5, align 8
  %23 = getelementptr inbounds nuw %struct.aiMesh, ptr %22, i32 0, i32 1
  %24 = load i32, ptr %23, align 4
  %25 = icmp ult i32 %21, %24
  br i1 %25, label %27, label %26

26:                                               ; preds = %20
  call void @llvm.lifetime.end.p0(i64 4, ptr %11) #18
  br label %45

27:                                               ; preds = %20
  call void @llvm.lifetime.start.p0(i64 12, ptr %12) #18
  %28 = load ptr, ptr %8, align 8
  %29 = load ptr, ptr %5, align 8
  %30 = getelementptr inbounds nuw %struct.aiMesh, ptr %29, i32 0, i32 3
  %31 = load ptr, ptr %30, align 8
  %32 = load i32, ptr %11, align 4
  %33 = zext i32 %32 to i64
  %34 = getelementptr inbounds nuw %class.aiVector3t, ptr %31, i64 %33
  %35 = call { <2 x float>, float } @_ZmlIfE10aiVector3tIT_ERK12aiMatrix4x4tIS1_ERKS2_(ptr noundef nonnull align 4 dereferenceable(64) %28, ptr noundef nonnull align 4 dereferenceable(12) %34)
  store { <2 x float>, float } %35, ptr %13, align 8
  call void @llvm.memcpy.p0.p0.i64(ptr align 4 %12, ptr align 8 %13, i64 12, i1 false)
  call void @llvm.lifetime.start.p0(i64 12, ptr %14) #18
  %36 = load ptr, ptr %6, align 8
  %37 = call { <2 x float>, float } @_ZSt3minIfE10aiVector3tIT_ERKS2_S4_(ptr noundef nonnull align 4 dereferenceable(12) %12, ptr noundef nonnull align 4 dereferenceable(12) %36)
  store { <2 x float>, float } %37, ptr %15, align 8
  call void @llvm.memcpy.p0.p0.i64(ptr align 4 %14, ptr align 8 %15, i64 12, i1 false)
  %38 = load ptr, ptr %6, align 8
  call void @llvm.memcpy.p0.p0.i64(ptr align 4 %38, ptr align 4 %14, i64 12, i1 false)
  call void @llvm.lifetime.end.p0(i64 12, ptr %14) #18
  call void @llvm.lifetime.start.p0(i64 12, ptr %16) #18
  %39 = load ptr, ptr %7, align 8
  %40 = call { <2 x float>, float } @_ZSt3maxIfE10aiVector3tIT_ERKS2_S4_(ptr noundef nonnull align 4 dereferenceable(12) %12, ptr noundef nonnull align 4 dereferenceable(12) %39)
  store { <2 x float>, float } %40, ptr %17, align 8
  call void @llvm.memcpy.p0.p0.i64(ptr align 4 %16, ptr align 8 %17, i64 12, i1 false)
  %41 = load ptr, ptr %7, align 8
  call void @llvm.memcpy.p0.p0.i64(ptr align 4 %41, ptr align 4 %16, i64 12, i1 false)
  call void @llvm.lifetime.end.p0(i64 12, ptr %16) #18
  call void @llvm.lifetime.end.p0(i64 12, ptr %12) #18
  br label %42

42:                                               ; preds = %27
  %43 = load i32, ptr %11, align 4
  %44 = add i32 %43, 1
  store i32 %44, ptr %11, align 4
  br label %20, !llvm.loop !7

45:                                               ; preds = %26
  ret void
}