; Function Attrs: mustprogress nofree norecurse nosync nounwind memory(read, argmem: readwrite, inaccessiblemem: none) uwtable
define hidden void @_ZN6Assimp19FindAABBTransformedEPK6aiMeshR10aiVector3tIfES5_RK12aiMatrix4x4tIfE(ptr noundef readonly captures(none) %0, ptr noundef nonnull align 4 captures(none) dereferenceable(12) initializes((0, 12)) %1, ptr noundef nonnull align 4 captures(none) dereferenceable(12) initializes((0, 12)) %2, ptr noundef nonnull readonly align 4 captures(none) dereferenceable(64) %3) local_unnamed_addr #3 {
  store float 0x42374876E0000000, ptr %1, align 4
  %.sroa.438.0..sroa_idx = getelementptr inbounds nuw i8, ptr %1, i64 4
  store float 0x42374876E0000000, ptr %.sroa.438.0..sroa_idx, align 4
  %.sroa.539.0..sroa_idx = getelementptr inbounds nuw i8, ptr %1, i64 8
  store float 0x42374876E0000000, ptr %.sroa.539.0..sroa_idx, align 4
  store float 0xC2374876E0000000, ptr %2, align 4
  %.sroa.4.0..sroa_idx36 = getelementptr inbounds nuw i8, ptr %2, i64 4
  store float 0xC2374876E0000000, ptr %.sroa.4.0..sroa_idx36, align 4
  %.sroa.5.0..sroa_idx = getelementptr inbounds nuw i8, ptr %2, i64 8
  store float 0xC2374876E0000000, ptr %.sroa.5.0..sroa_idx, align 4
  %5 = getelementptr inbounds nuw i8, ptr %0, i64 4
  %6 = load i32, ptr %5, align 4
  %.not = icmp eq i32 %6, 0
  br i1 %.not, label %._crit_edge, label %.lr.ph

.lr.ph:                                           ; preds = %4
  %7 = getelementptr inbounds nuw i8, ptr %0, i64 16
  %8 = getelementptr inbounds nuw i8, ptr %3, i64 4
  %9 = getelementptr inbounds nuw i8, ptr %3, i64 8
  %10 = getelementptr inbounds nuw i8, ptr %3, i64 12
  %11 = getelementptr inbounds nuw i8, ptr %3, i64 16
  %12 = getelementptr inbounds nuw i8, ptr %3, i64 20
  %13 = getelementptr inbounds nuw i8, ptr %3, i64 24
  %14 = getelementptr inbounds nuw i8, ptr %3, i64 28
  %15 = getelementptr inbounds nuw i8, ptr %3, i64 32
  %16 = getelementptr inbounds nuw i8, ptr %3, i64 36
  %17 = getelementptr inbounds nuw i8, ptr %3, i64 40
  %18 = getelementptr inbounds nuw i8, ptr %3, i64 44
  br label %19

._crit_edge:                                      ; preds = %19, %4
  ret void

19:                                               ; preds = %.lr.ph, %19
  %indvars.iv = phi i64 [ 0, %.lr.ph ], [ %indvars.iv.next, %19 ]
  %20 = load ptr, ptr %7, align 8
  %21 = getelementptr inbounds nuw %class.aiVector3t, ptr %20, i64 %indvars.iv
  %22 = load float, ptr %3, align 4
  %23 = load float, ptr %21, align 4
  %24 = load float, ptr %8, align 4
  %25 = getelementptr inbounds nuw i8, ptr %21, i64 4
  %26 = load float, ptr %25, align 4
  %27 = fmul float %24, %26
  %28 = tail call float @llvm.fmuladd.f32(float %22, float %23, float %27)
  %29 = load float, ptr %9, align 4
  %30 = getelementptr inbounds nuw i8, ptr %21, i64 8
  %31 = load float, ptr %30, align 4
  %32 = tail call float @llvm.fmuladd.f32(float %29, float %31, float %28)
  %33 = load float, ptr %10, align 4
  %34 = fadd float %32, %33
  %35 = load float, ptr %11, align 4
  %36 = load float, ptr %12, align 4
  %37 = fmul float %26, %36
  %38 = tail call float @llvm.fmuladd.f32(float %35, float %23, float %37)
  %39 = load float, ptr %13, align 4
  %40 = tail call float @llvm.fmuladd.f32(float %39, float %31, float %38)
  %41 = load float, ptr %14, align 4
  %42 = fadd float %41, %40
  %43 = load float, ptr %15, align 4
  %44 = load float, ptr %16, align 4
  %45 = fmul float %26, %44
  %46 = tail call float @llvm.fmuladd.f32(float %43, float %23, float %45)
  %47 = load float, ptr %17, align 4
  %48 = tail call float @llvm.fmuladd.f32(float %47, float %31, float %46)
  %49 = load float, ptr %18, align 4
  %50 = fadd float %49, %48
  %51 = load float, ptr %1, align 4
  %52 = fcmp olt float %51, %34
  %53 = select i1 %52, float %51, float %34
  %54 = load float, ptr %.sroa.438.0..sroa_idx, align 4
  %55 = fcmp olt float %54, %42
  %56 = select i1 %55, float %54, float %42
  %57 = load float, ptr %.sroa.539.0..sroa_idx, align 4
  %58 = fcmp olt float %57, %50
  %59 = select i1 %58, float %57, float %50
  %.sroa.0.0.vec.insert.i22 = insertelement <2 x float> poison, float %53, i64 0
  %.sroa.0.4.vec.insert.i23 = insertelement <2 x float> %.sroa.0.0.vec.insert.i22, float %56, i64 1
  store <2 x float> %.sroa.0.4.vec.insert.i23, ptr %1, align 4
  store float %59, ptr %.sroa.539.0..sroa_idx, align 4
  %60 = load float, ptr %2, align 4
  %61 = fcmp olt float %34, %60
  %62 = select i1 %61, float %60, float %34
  %63 = load float, ptr %.sroa.4.0..sroa_idx36, align 4
  %64 = fcmp olt float %42, %63
  %65 = select i1 %64, float %63, float %42
  %66 = load float, ptr %.sroa.5.0..sroa_idx, align 4
  %67 = fcmp olt float %50, %66
  %68 = select i1 %67, float %66, float %50
  %.sroa.0.0.vec.insert.i26 = insertelement <2 x float> poison, float %62, i64 0
  %.sroa.0.4.vec.insert.i27 = insertelement <2 x float> %.sroa.0.0.vec.insert.i26, float %65, i64 1
  store <2 x float> %.sroa.0.4.vec.insert.i27, ptr %2, align 4
  store float %68, ptr %.sroa.5.0..sroa_idx, align 4
  %indvars.iv.next = add nuw nsw i64 %indvars.iv, 1
  %69 = load i32, ptr %5, align 4
  %70 = zext i32 %69 to i64
  %71 = icmp samesign ult i64 %indvars.iv.next, %70
  br i1 %71, label %19, label %._crit_edge, !llvm.loop !11
}